target datalayout = "e-m:e-p270:32:32-p271:32:32-p272:64:64-i64:64-i128:128-f80:128-n8:16:32:64-S128"
target triple = "x86_64-pc-linux-gnu"

%struct.usershape_s = type { %struct._dtlink_s, ptr, i32, i8, i8, ptr, i32, ptr, i32, i32, i32, i32, i32, ptr, i64, ptr }
%struct._dtlink_s = type { ptr, %union.anon }
%union.anon = type { ptr }

; Function Attrs: nounwind uwtable
define internal void @usershape_close(ptr noundef %0, ptr noundef %1) #0 {
  %3 = alloca ptr, align 8
  %4 = alloca ptr, align 8
  %5 = alloca ptr, align 8
  store ptr %0, ptr %3, align 8
  store ptr %1, ptr %4, align 8
  %6 = load ptr, ptr %3, align 8
  store ptr %6, ptr %5, align 8
  %7 = load ptr, ptr %5, align 8
  %8 = getelementptr inbounds %struct.usershape_s, ptr %7, i32 0, i32 5
  %9 = load ptr, ptr %8, align 8
  %10 = icmp ne ptr %9, null
  br i1 %10, label %11, label %16

11:                                               ; preds = %2
  %12 = load ptr, ptr %5, align 8
  %13 = getelementptr inbounds %struct.usershape_s, ptr %12, i32 0, i32 5
  %14 = load ptr, ptr %13, align 8
  %15 = call i32 @fclose(ptr noundef %14)
  br label %16

16:                                               ; preds = %11, %2
  %17 = load ptr, ptr %5, align 8
  %18 = getelementptr inbounds %struct.usershape_s, ptr %17, i32 0, i32 13
  %19 = load ptr, ptr %18, align 8
  %20 = icmp ne ptr %19, null
  br i1 %20, label %21, label %31

21:                                               ; preds = %16
  %22 = load ptr, ptr %5, align 8
  %23 = getelementptr inbounds %struct.usershape_s, ptr %22, i32 0, i32 15
  %24 = load ptr, ptr %23, align 8
  %25 = icmp ne ptr %24, null
  br i1 %25, label %26, label %31

26:                                               ; preds = %21
  %27 = load ptr, ptr %5, align 8
  %28 = getelementptr inbounds %struct.usershape_s, ptr %27, i32 0, i32 15
  %29 = load ptr, ptr %28, align 8
  %30 = load ptr, ptr %5, align 8
  call void %29(ptr noundef %30)
  br label %31

31:                                               ; preds = %26, %21, %16
  %32 = load ptr, ptr %5, align 8
  call void @free(ptr noundef %32) #13
  ret void
}