; Function Attrs: nounwind uwtable
define internal void @usershape_close(ptr noundef %0, ptr readnone captures(none) %1) #0 {
  %3 = getelementptr inbounds nuw i8, ptr %0, i64 32
  %4 = load ptr, ptr %3, align 8
  %.not = icmp eq ptr %4, null
  br i1 %.not, label %7, label %5

5:                                                ; preds = %2
  %6 = tail call i32 @fclose(ptr noundef nonnull %4)
  br label %7

7:                                                ; preds = %5, %2
  %8 = getelementptr inbounds nuw i8, ptr %0, i64 80
  %9 = load ptr, ptr %8, align 8
  %.not9 = icmp eq ptr %9, null
  br i1 %.not9, label %14, label %10

10:                                               ; preds = %7
  %11 = getelementptr inbounds nuw i8, ptr %0, i64 96
  %12 = load ptr, ptr %11, align 8
  %.not10 = icmp eq ptr %12, null
  br i1 %.not10, label %14, label %13

13:                                               ; preds = %10
  tail call void %12(ptr noundef nonnull %0) #21
  br label %14

14:                                               ; preds = %13, %10, %7
  tail call void @free(ptr noundef nonnull %0) #21
  ret void
}